; Function Attrs: nounwind uwtable
define internal ptr @compactlongs_or(ptr noundef readonly captures(none) %0, ptr noundef readonly captures(none) %1) #3 {
  %3 = getelementptr i8, ptr %1, i64 16
  %.val4 = load i64, ptr %3, align 8, !tbaa !153
  %4 = getelementptr i8, ptr %1, i64 24
  %.val5 = load i32, ptr %4, align 8, !tbaa !47
  %5 = and i64 %.val4, 3
  %6 = sub nsw i64 1, %5
  %7 = zext i32 %.val5 to i64
  %8 = mul nsw i64 %6, %7
  %9 = getelementptr i8, ptr %0, i64 16
  %.val = load i64, ptr %9, align 8, !tbaa !153
  %10 = getelementptr i8, ptr %0, i64 24
  %.val3 = load i32, ptr %10, align 8, !tbaa !47
  %11 = and i64 %.val, 3
  %12 = sub nsw i64 1, %11
  %13 = zext i32 %.val3 to i64
  %14 = mul nsw i64 %12, %13
  %15 = or i64 %14, %8
  %16 = tail call ptr @PyLong_FromSsize_t(i64 noundef %15) #9
  ret ptr %16
}